target datalayout = "e-m:e-p270:32:32-p271:32:32-p272:64:64-i64:64-i128:128-f80:128-n8:16:32:64-S128"
target triple = "x86_64-pc-linux-gnu"

%struct.AVFilterContext = type { ptr, ptr, ptr, ptr, ptr, i32, ptr, ptr, i32, ptr, ptr, i32, i32, ptr, ptr, ptr, ptr, i32, ptr, i32, i32 }
%struct.AudioSDRContext = type { i32, i64, double, ptr, [2 x ptr], ptr }
%struct.AVFilterLink = type { ptr, ptr, ptr, ptr, i32, i32, i32, i32, %struct.AVRational, i32, i32, i32, %struct.AVChannelLayout, %struct.AVRational, ptr, i32, %struct.AVFilterFormatsConfig, %struct.AVFilterFormatsConfig }
%struct.AVChannelLayout = type { i32, i32, %union.anon.1, ptr }
%union.anon.1 = type { i64 }
%struct.AVRational = type { i32, i32 }
%struct.AVFilterFormatsConfig = type { ptr, ptr, ptr, ptr, ptr }

; Function Attrs: inlinehint nounwind uwtable
define internal void @ff_outlink_set_status(ptr noundef %0, i32 noundef %1, i64 noundef %2) #6 {
  %4 = alloca ptr, align 8
  %5 = alloca i32, align 4
  %6 = alloca i64, align 8
  store ptr %0, ptr %4, align 8, !tbaa !46
  store i32 %1, ptr %5, align 4, !tbaa !27
  store i64 %2, ptr %6, align 8, !tbaa !64
  %7 = load ptr, ptr %4, align 8, !tbaa !46
  %8 = load i32, ptr %5, align 4, !tbaa !27
  %9 = load i64, ptr %6, align 8, !tbaa !64
  call void @ff_avfilter_link_set_in_status(ptr noundef %7, i32 noundef %8, i64 noundef %9)
  ret void
}

; Function Attrs: nounwind uwtable
define internal i32 @activate(ptr noundef %0) #1 {
  %2 = alloca i32, align 4
  %3 = alloca ptr, align 8
  %4 = alloca ptr, align 8
  %5 = alloca ptr, align 8
  %6 = alloca i32, align 4
  %7 = alloca i32, align 4
  %8 = alloca i32, align 4
  %9 = alloca i64, align 8
  %10 = alloca i32, align 4
  %11 = alloca i32, align 4
  %12 = alloca i32, align 4
  %13 = alloca ptr, align 8
  %14 = alloca i32, align 4
  %15 = alloca i32, align 4
  %16 = alloca i32, align 4
  store ptr %0, ptr %3, align 8, !tbaa !4
  call void @llvm.lifetime.start.p0(i64 8, ptr %4) #7
  %17 = load ptr, ptr %3, align 8, !tbaa !4
  %18 = getelementptr inbounds nuw %struct.AVFilterContext, ptr %17, i32 0, i32 9
  %19 = load ptr, ptr %18, align 8, !tbaa !9
  store ptr %19, ptr %4, align 8, !tbaa !22
  call void @llvm.lifetime.start.p0(i64 8, ptr %5) #7
  %20 = load ptr, ptr %3, align 8, !tbaa !4
  %21 = getelementptr inbounds nuw %struct.AVFilterContext, ptr %20, i32 0, i32 7
  %22 = load ptr, ptr %21, align 8, !tbaa !45
  %23 = getelementptr inbounds ptr, ptr %22, i64 0
  %24 = load ptr, ptr %23, align 8, !tbaa !46
  store ptr %24, ptr %5, align 8, !tbaa !46
  call void @llvm.lifetime.start.p0(i64 4, ptr %6) #7
  call void @llvm.lifetime.start.p0(i64 4, ptr %7) #7
  call void @llvm.lifetime.start.p0(i64 4, ptr %8) #7
  call void @llvm.lifetime.start.p0(i64 8, ptr %9) #7
  br label %25

25:                                               ; preds = %1
  call void @llvm.lifetime.start.p0(i64 4, ptr %10) #7
  %26 = load ptr, ptr %5, align 8, !tbaa !46
  %27 = call i32 @ff_outlink_get_status(ptr noundef %26)
  store i32 %27, ptr %10, align 4, !tbaa !27
  %28 = load i32, ptr %10, align 4, !tbaa !27
  %29 = icmp ne i32 %28, 0
  br i1 %29, label %30, label %50

30:                                               ; preds = %25
  call void @llvm.lifetime.start.p0(i64 4, ptr %11) #7
  store i32 0, ptr %11, align 4, !tbaa !27
  br label %31

31:                                               ; preds = %46, %30
  %32 = load i32, ptr %11, align 4, !tbaa !27
  %33 = load ptr, ptr %3, align 8, !tbaa !4
  %34 = getelementptr inbounds nuw %struct.AVFilterContext, ptr %33, i32 0, i32 5
  %35 = load i32, ptr %34, align 8, !tbaa !48
  %36 = icmp ult i32 %32, %35
  br i1 %36, label %37, label %49

37:                                               ; preds = %31
  %38 = load ptr, ptr %3, align 8, !tbaa !4
  %39 = getelementptr inbounds nuw %struct.AVFilterContext, ptr %38, i32 0, i32 4
  %40 = load ptr, ptr %39, align 8, !tbaa !49
  %41 = load i32, ptr %11, align 4, !tbaa !27
  %42 = zext i32 %41 to i64
  %43 = getelementptr inbounds nuw ptr, ptr %40, i64 %42
  %44 = load ptr, ptr %43, align 8, !tbaa !46
  %45 = load i32, ptr %10, align 4, !tbaa !27
  call void @ff_inlink_set_status(ptr noundef %44, i32 noundef %45)
  br label %46

46:                                               ; preds = %37
  %47 = load i32, ptr %11, align 4, !tbaa !27
  %48 = add i32 %47, 1
  store i32 %48, ptr %11, align 4, !tbaa !27
  br label %31, !llvm.loop !50

49:                                               ; preds = %31
  store i32 0, ptr %2, align 4
  store i32 1, ptr %12, align 4
  call void @llvm.lifetime.end.p0(i64 4, ptr %11) #7
  br label %51

50:                                               ; preds = %25
  store i32 0, ptr %12, align 4
  br label %51

51:                                               ; preds = %50, %49
  call void @llvm.lifetime.end.p0(i64 4, ptr %10) #7
  %52 = load i32, ptr %12, align 4
  switch i32 %52, label %241 [
    i32 0, label %53
  ]

53:                                               ; preds = %51
  br label %54

54:                                               ; preds = %53
  br label %55

55:                                               ; preds = %54
  %56 = load ptr, ptr %3, align 8, !tbaa !4
  %57 = getelementptr inbounds nuw %struct.AVFilterContext, ptr %56, i32 0, i32 4
  %58 = load ptr, ptr %57, align 8, !tbaa !49
  %59 = getelementptr inbounds ptr, ptr %58, i64 0
  %60 = load ptr, ptr %59, align 8, !tbaa !46
  %61 = call i32 @ff_inlink_queued_samples(ptr noundef %60)
  %62 = load ptr, ptr %3, align 8, !tbaa !4
  %63 = getelementptr inbounds nuw %struct.AVFilterContext, ptr %62, i32 0, i32 4
  %64 = load ptr, ptr %63, align 8, !tbaa !49
  %65 = getelementptr inbounds ptr, ptr %64, i64 1
  %66 = load ptr, ptr %65, align 8, !tbaa !46
  %67 = call i32 @ff_inlink_queued_samples(ptr noundef %66)
  %68 = icmp sgt i32 %61, %67
  br i1 %68, label %69, label %76

69:                                               ; preds = %55
  %70 = load ptr, ptr %3, align 8, !tbaa !4
  %71 = getelementptr inbounds nuw %struct.AVFilterContext, ptr %70, i32 0, i32 4
  %72 = load ptr, ptr %71, align 8, !tbaa !49
  %73 = getelementptr inbounds ptr, ptr %72, i64 1
  %74 = load ptr, ptr %73, align 8, !tbaa !46
  %75 = call i32 @ff_inlink_queued_samples(ptr noundef %74)
  br label %83

76:                                               ; preds = %55
  %77 = load ptr, ptr %3, align 8, !tbaa !4
  %78 = getelementptr inbounds nuw %struct.AVFilterContext, ptr %77, i32 0, i32 4
  %79 = load ptr, ptr %78, align 8, !tbaa !49
  %80 = getelementptr inbounds ptr, ptr %79, i64 0
  %81 = load ptr, ptr %80, align 8, !tbaa !46
  %82 = call i32 @ff_inlink_queued_samples(ptr noundef %81)
  br label %83

83:                                               ; preds = %76, %69
  %84 = phi i32 [ %75, %69 ], [ %82, %76 ]
  store i32 %84, ptr %8, align 4, !tbaa !27
  %85 = load i32, ptr %8, align 4, !tbaa !27
  %86 = icmp sgt i32 %85, 0
  br i1 %86, label %87, label %173

87:                                               ; preds = %83
  call void @llvm.lifetime.start.p0(i64 8, ptr %13) #7
  call void @llvm.lifetime.start.p0(i64 4, ptr %14) #7
  store i32 0, ptr %14, align 4, !tbaa !27
  br label %88

88:                                               ; preds = %119, %87
  %89 = load i32, ptr %14, align 4, !tbaa !27
  %90 = icmp slt i32 %89, 2
  br i1 %90, label %92, label %91

91:                                               ; preds = %88
  store i32 7, ptr %12, align 4
  br label %122

92:                                               ; preds = %88
  %93 = load ptr, ptr %3, align 8, !tbaa !4
  %94 = getelementptr inbounds nuw %struct.AVFilterContext, ptr %93, i32 0, i32 4
  %95 = load ptr, ptr %94, align 8, !tbaa !49
  %96 = load i32, ptr %14, align 4, !tbaa !27
  %97 = sext i32 %96 to i64
  %98 = getelementptr inbounds ptr, ptr %95, i64 %97
  %99 = load ptr, ptr %98, align 8, !tbaa !46
  %100 = load i32, ptr %8, align 4, !tbaa !27
  %101 = load i32, ptr %8, align 4, !tbaa !27
  %102 = load ptr, ptr %4, align 8, !tbaa !22
  %103 = getelementptr inbounds nuw %struct.AudioSDRContext, ptr %102, i32 0, i32 4
  %104 = load i32, ptr %14, align 4, !tbaa !27
  %105 = sext i32 %104 to i64
  %106 = getelementptr inbounds [2 x ptr], ptr %103, i64 0, i64 %105
  %107 = call i32 @ff_inlink_consume_samples(ptr noundef %99, i32 noundef %100, i32 noundef %101, ptr noundef %106)
  store i32 %107, ptr %6, align 4, !tbaa !27
  %108 = load i32, ptr %6, align 4, !tbaa !27
  %109 = icmp slt i32 %108, 0
  br i1 %109, label %110, label %118

110:                                              ; preds = %92
  %111 = load ptr, ptr %4, align 8, !tbaa !22
  %112 = getelementptr inbounds nuw %struct.AudioSDRContext, ptr %111, i32 0, i32 4
  %113 = getelementptr inbounds [2 x ptr], ptr %112, i64 0, i64 0
  call void @av_frame_free(ptr noundef %113)
  %114 = load ptr, ptr %4, align 8, !tbaa !22
  %115 = getelementptr inbounds nuw %struct.AudioSDRContext, ptr %114, i32 0, i32 4
  %116 = getelementptr inbounds [2 x ptr], ptr %115, i64 0, i64 1
  call void @av_frame_free(ptr noundef %116)
  %117 = load i32, ptr %6, align 4, !tbaa !27
  store i32 %117, ptr %2, align 4
  store i32 1, ptr %12, align 4
  br label %122

118:                                              ; preds = %92
  br label %119

119:                                              ; preds = %118
  %120 = load i32, ptr %14, align 4, !tbaa !27
  %121 = add nsw i32 %120, 1
  store i32 %121, ptr %14, align 4, !tbaa !27
  br label %88, !llvm.loop !51

122:                                              ; preds = %110, %91
  call void @llvm.lifetime.end.p0(i64 4, ptr %14) #7
  %123 = load i32, ptr %12, align 4
  switch i32 %123, label %172 [
    i32 7, label %124
  ]

124:                                              ; preds = %122
  %125 = load ptr, ptr %3, align 8, !tbaa !4
  %126 = getelementptr inbounds nuw %struct.AVFilterContext, ptr %125, i32 0, i32 17
  %127 = load i32, ptr %126, align 8, !tbaa !52
  %128 = icmp ne i32 %127, 0
  br i1 %128, label %152, label %129

129:                                              ; preds = %124
  %130 = load ptr, ptr %3, align 8, !tbaa !4
  %131 = load ptr, ptr %4, align 8, !tbaa !22
  %132 = getelementptr inbounds nuw %struct.AudioSDRContext, ptr %131, i32 0, i32 5
  %133 = load ptr, ptr %132, align 8, !tbaa !53
  %134 = load ptr, ptr %5, align 8, !tbaa !46
  %135 = getelementptr inbounds nuw %struct.AVFilterLink, ptr %134, i32 0, i32 12
  %136 = getelementptr inbounds nuw %struct.AVChannelLayout, ptr %135, i32 0, i32 1
  %137 = load i32, ptr %136, align 4, !tbaa !54
  %138 = load ptr, ptr %3, align 8, !tbaa !4
  %139 = call i32 @ff_filter_get_nb_threads(ptr noundef %138) #8
  %140 = icmp sgt i32 %137, %139
  br i1 %140, label %141, label %144

141:                                              ; preds = %129
  %142 = load ptr, ptr %3, align 8, !tbaa !4
  %143 = call i32 @ff_filter_get_nb_threads(ptr noundef %142) #8
  br label %149

144:                                              ; preds = %129
  %145 = load ptr, ptr %5, align 8, !tbaa !46
  %146 = getelementptr inbounds nuw %struct.AVFilterLink, ptr %145, i32 0, i32 12
  %147 = getelementptr inbounds nuw %struct.AVChannelLayout, ptr %146, i32 0, i32 1
  %148 = load i32, ptr %147, align 4, !tbaa !54
  br label %149

149:                                              ; preds = %144, %141
  %150 = phi i32 [ %143, %141 ], [ %148, %144 ]
  %151 = call i32 @ff_filter_execute(ptr noundef %130, ptr noundef %133, ptr noundef null, ptr noundef null, i32 noundef %150)
  br label %152

152:                                              ; preds = %149, %124
  %153 = load ptr, ptr %4, align 8, !tbaa !22
  %154 = getelementptr inbounds nuw %struct.AudioSDRContext, ptr %153, i32 0, i32 4
  %155 = getelementptr inbounds [2 x ptr], ptr %154, i64 0, i64 1
  call void @av_frame_free(ptr noundef %155)
  %156 = load ptr, ptr %4, align 8, !tbaa !22
  %157 = getelementptr inbounds nuw %struct.AudioSDRContext, ptr %156, i32 0, i32 4
  %158 = getelementptr inbounds [2 x ptr], ptr %157, i64 0, i64 0
  %159 = load ptr, ptr %158, align 8, !tbaa !62
  store ptr %159, ptr %13, align 8, !tbaa !62
  %160 = load ptr, ptr %4, align 8, !tbaa !22
  %161 = getelementptr inbounds nuw %struct.AudioSDRContext, ptr %160, i32 0, i32 4
  %162 = getelementptr inbounds [2 x ptr], ptr %161, i64 0, i64 0
  store ptr null, ptr %162, align 8, !tbaa !62
  %163 = load i32, ptr %8, align 4, !tbaa !27
  %164 = sext i32 %163 to i64
  %165 = load ptr, ptr %4, align 8, !tbaa !22
  %166 = getelementptr inbounds nuw %struct.AudioSDRContext, ptr %165, i32 0, i32 1
  %167 = load i64, ptr %166, align 8, !tbaa !43
  %168 = add i64 %167, %164
  store i64 %168, ptr %166, align 8, !tbaa !43
  %169 = load ptr, ptr %5, align 8, !tbaa !46
  %170 = load ptr, ptr %13, align 8, !tbaa !62
  %171 = call i32 @ff_filter_frame(ptr noundef %169, ptr noundef %170)
  store i32 %171, ptr %2, align 4
  store i32 1, ptr %12, align 4
  br label %172

172:                                              ; preds = %152, %122
  call void @llvm.lifetime.end.p0(i64 8, ptr %13) #7
  br label %241

173:                                              ; preds = %83
  call void @llvm.lifetime.start.p0(i64 4, ptr %15) #7
  store i32 0, ptr %15, align 4, !tbaa !27
  br label %174

174:                                              ; preds = %193, %173
  %175 = load i32, ptr %15, align 4, !tbaa !27
  %176 = icmp slt i32 %175, 2
  br i1 %176, label %178, label %177

177:                                              ; preds = %174
  store i32 10, ptr %12, align 4
  br label %196

178:                                              ; preds = %174
  %179 = load ptr, ptr %3, align 8, !tbaa !4
  %180 = getelementptr inbounds nuw %struct.AVFilterContext, ptr %179, i32 0, i32 4
  %181 = load ptr, ptr %180, align 8, !tbaa !49
  %182 = load i32, ptr %15, align 4, !tbaa !27
  %183 = sext i32 %182 to i64
  %184 = getelementptr inbounds ptr, ptr %181, i64 %183
  %185 = load ptr, ptr %184, align 8, !tbaa !46
  %186 = call i32 @ff_inlink_acknowledge_status(ptr noundef %185, ptr noundef %7, ptr noundef %9)
  %187 = icmp ne i32 %186, 0
  br i1 %187, label %188, label %192

188:                                              ; preds = %178
  %189 = load ptr, ptr %5, align 8, !tbaa !46
  %190 = load i32, ptr %7, align 4, !tbaa !27
  %191 = load i64, ptr %9, align 8, !tbaa !64
  call void @ff_outlink_set_status(ptr noundef %189, i32 noundef %190, i64 noundef %191)
  store i32 0, ptr %2, align 4
  store i32 1, ptr %12, align 4
  br label %196

192:                                              ; preds = %178
  br label %193

193:                                              ; preds = %192
  %194 = load i32, ptr %15, align 4, !tbaa !27
  %195 = add nsw i32 %194, 1
  store i32 %195, ptr %15, align 4, !tbaa !27
  br label %174, !llvm.loop !65

196:                                              ; preds = %188, %177
  call void @llvm.lifetime.end.p0(i64 4, ptr %15) #7
  %197 = load i32, ptr %12, align 4
  switch i32 %197, label %241 [
    i32 10, label %198
  ]

198:                                              ; preds = %196
  %199 = load ptr, ptr %5, align 8, !tbaa !46
  %200 = call i32 @ff_outlink_frame_wanted(ptr noundef %199)
  %201 = icmp ne i32 %200, 0
  br i1 %201, label %202, label %240

202:                                              ; preds = %198
  call void @llvm.lifetime.start.p0(i64 4, ptr %16) #7
  store i32 0, ptr %16, align 4, !tbaa !27
  br label %203

203:                                              ; preds = %234, %202
  %204 = load i32, ptr %16, align 4, !tbaa !27
  %205 = icmp slt i32 %204, 2
  br i1 %205, label %207, label %206

206:                                              ; preds = %203
  store i32 13, ptr %12, align 4
  br label %237

207:                                              ; preds = %203
  %208 = load ptr, ptr %4, align 8, !tbaa !22
  %209 = getelementptr inbounds nuw %struct.AudioSDRContext, ptr %208, i32 0, i32 4
  %210 = load i32, ptr %16, align 4, !tbaa !27
  %211 = sext i32 %210 to i64
  %212 = getelementptr inbounds [2 x ptr], ptr %209, i64 0, i64 %211
  %213 = load ptr, ptr %212, align 8, !tbaa !62
  %214 = icmp ne ptr %213, null
  br i1 %214, label %225, label %215

215:                                              ; preds = %207
  %216 = load ptr, ptr %3, align 8, !tbaa !4
  %217 = getelementptr inbounds nuw %struct.AVFilterContext, ptr %216, i32 0, i32 4
  %218 = load ptr, ptr %217, align 8, !tbaa !49
  %219 = load i32, ptr %16, align 4, !tbaa !27
  %220 = sext i32 %219 to i64
  %221 = getelementptr inbounds ptr, ptr %218, i64 %220
  %222 = load ptr, ptr %221, align 8, !tbaa !46
  %223 = call i32 @ff_inlink_queued_samples(ptr noundef %222)
  %224 = icmp sgt i32 %223, 0
  br i1 %224, label %225, label %226

225:                                              ; preds = %215, %207
  br label %234

226:                                              ; preds = %215
  %227 = load ptr, ptr %3, align 8, !tbaa !4
  %228 = getelementptr inbounds nuw %struct.AVFilterContext, ptr %227, i32 0, i32 4
  %229 = load ptr, ptr %228, align 8, !tbaa !49
  %230 = load i32, ptr %16, align 4, !tbaa !27
  %231 = sext i32 %230 to i64
  %232 = getelementptr inbounds ptr, ptr %229, i64 %231
  %233 = load ptr, ptr %232, align 8, !tbaa !46
  call void @ff_inlink_request_frame(ptr noundef %233)
  store i32 0, ptr %2, align 4
  store i32 1, ptr %12, align 4
  br label %237

234:                                              ; preds = %225
  %235 = load i32, ptr %16, align 4, !tbaa !27
  %236 = add nsw i32 %235, 1
  store i32 %236, ptr %16, align 4, !tbaa !27
  br label %203, !llvm.loop !66

237:                                              ; preds = %226, %206
  call void @llvm.lifetime.end.p0(i64 4, ptr %16) #7
  %238 = load i32, ptr %12, align 4
  switch i32 %238, label %241 [
    i32 13, label %239
  ]

239:                                              ; preds = %237
  br label %240

240:                                              ; preds = %239, %198
  store i32 -1497649742, ptr %2, align 4
  store i32 1, ptr %12, align 4
  br label %241

241:                                              ; preds = %240, %237, %196, %172, %51
  call void @llvm.lifetime.end.p0(i64 8, ptr %9) #7
  call void @llvm.lifetime.end.p0(i64 4, ptr %8) #7
  call void @llvm.lifetime.end.p0(i64 4, ptr %7) #7
  call void @llvm.lifetime.end.p0(i64 4, ptr %6) #7
  call void @llvm.lifetime.end.p0(i64 8, ptr %5) #7
  call void @llvm.lifetime.end.p0(i64 8, ptr %4) #7
  %242 = load i32, ptr %2, align 4
  ret i32 %242
}