; Function Attrs: nounwind uwtable
define internal i32 @activate(ptr noundef %0) #1 {
  %2 = alloca i32, align 4
  %3 = alloca i64, align 8
  %4 = getelementptr inbounds nuw i8, ptr %0, i64 72
  %5 = load ptr, ptr %4, align 8, !tbaa !4
  %6 = getelementptr inbounds nuw i8, ptr %0, i64 56
  %7 = load ptr, ptr %6, align 8, !tbaa !39
  %8 = load ptr, ptr %7, align 8, !tbaa !40
  call void @llvm.lifetime.start.p0(i64 4, ptr nonnull %2) #10
  call void @llvm.lifetime.start.p0(i64 8, ptr nonnull %3) #10
  %9 = tail call i32 @ff_outlink_get_status(ptr noundef %8) #10
  %.not = icmp eq i32 %9, 0
  br i1 %.not, label %.critedge, label %.preheader86

.preheader86:                                     ; preds = %1
  %10 = getelementptr inbounds nuw i8, ptr %0, i64 40
  %11 = load i32, ptr %10, align 8, !tbaa !42
  %.not94 = icmp eq i32 %11, 0
  br i1 %.not94, label %.critedge82, label %.lr.ph

.lr.ph:                                           ; preds = %.preheader86
  %12 = getelementptr inbounds nuw i8, ptr %0, i64 32
  br label %13

13:                                               ; preds = %.lr.ph, %13
  %indvars.iv = phi i64 [ 0, %.lr.ph ], [ %indvars.iv.next, %13 ]
  %14 = load ptr, ptr %12, align 8, !tbaa !43
  %15 = getelementptr inbounds nuw ptr, ptr %14, i64 %indvars.iv
  %16 = load ptr, ptr %15, align 8, !tbaa !40
  tail call void @ff_inlink_set_status(ptr noundef %16, i32 noundef %9) #10
  %indvars.iv.next = add nuw nsw i64 %indvars.iv, 1
  %17 = load i32, ptr %10, align 8, !tbaa !42
  %18 = zext i32 %17 to i64
  %19 = icmp samesign ult i64 %indvars.iv.next, %18
  br i1 %19, label %13, label %.critedge82, !llvm.loop !44

.critedge:                                        ; preds = %1
  %20 = getelementptr inbounds nuw i8, ptr %0, i64 32
  %21 = load ptr, ptr %20, align 8, !tbaa !43
  %22 = load ptr, ptr %21, align 8, !tbaa !40
  %23 = tail call i32 @ff_inlink_queued_samples(ptr noundef %22) #10
  %24 = load ptr, ptr %20, align 8, !tbaa !43
  %25 = getelementptr inbounds nuw i8, ptr %24, i64 8
  %26 = load ptr, ptr %25, align 8, !tbaa !40
  %27 = tail call i32 @ff_inlink_queued_samples(ptr noundef %26) #10
  %28 = icmp sgt i32 %23, %27
  %29 = load ptr, ptr %20, align 8, !tbaa !43
  %.sink.in.idx = select i1 %28, i64 8, i64 0
  %.sink.in = getelementptr inbounds nuw i8, ptr %29, i64 %.sink.in.idx
  %.sink = load ptr, ptr %.sink.in, align 8, !tbaa !40
  %30 = tail call i32 @ff_inlink_queued_samples(ptr noundef %.sink) #10
  %31 = icmp sgt i32 %30, 0
  br i1 %31, label %.preheader, label %.preheader85

.preheader:                                       ; preds = %.critedge
  %32 = getelementptr inbounds nuw i8, ptr %5, i64 32
  br label %34

33:                                               ; preds = %34
  br i1 %.not97, label %34, label %43, !llvm.loop !45

34:                                               ; preds = %.preheader, %33
  %.not97 = phi i1 [ true, %.preheader ], [ false, %33 ]
  %indvars.iv109 = phi i64 [ 0, %.preheader ], [ 1, %33 ]
  %35 = load ptr, ptr %20, align 8, !tbaa !43
  %36 = getelementptr inbounds nuw ptr, ptr %35, i64 %indvars.iv109
  %37 = load ptr, ptr %36, align 8, !tbaa !40
  %38 = getelementptr inbounds nuw [2 x ptr], ptr %32, i64 0, i64 %indvars.iv109
  %39 = tail call i32 @ff_inlink_consume_samples(ptr noundef %37, i32 noundef %30, i32 noundef %30, ptr noundef nonnull %38) #10
  %40 = icmp slt i32 %39, 0
  br i1 %40, label %41, label %33

41:                                               ; preds = %34
  tail call void @av_frame_free(ptr noundef nonnull %32) #10
  %42 = getelementptr inbounds nuw i8, ptr %5, i64 40
  tail call void @av_frame_free(ptr noundef nonnull %42) #10
  br label %.critedge82

43:                                               ; preds = %33
  %44 = getelementptr inbounds nuw i8, ptr %0, i64 128
  %45 = load i32, ptr %44, align 8, !tbaa !46
  %.not78 = icmp eq i32 %45, 0
  br i1 %.not78, label %46, label %53

46:                                               ; preds = %43
  %47 = getelementptr inbounds nuw i8, ptr %5, i64 48
  %48 = load ptr, ptr %47, align 8, !tbaa !47
  %49 = getelementptr inbounds nuw i8, ptr %8, i64 76
  %50 = load i32, ptr %49, align 4, !tbaa !48
  %51 = tail call i32 @ff_filter_get_nb_threads(ptr noundef nonnull %0) #9
  %. = tail call i32 @llvm.smin.i32(i32 %50, i32 %51)
  %52 = tail call i32 @ff_filter_execute(ptr noundef nonnull %0, ptr noundef %48, ptr noundef null, ptr noundef null, i32 noundef %.) #10
  br label %53

53:                                               ; preds = %46, %43
  %54 = getelementptr inbounds nuw i8, ptr %5, i64 40
  tail call void @av_frame_free(ptr noundef nonnull %54) #10
  %55 = load ptr, ptr %32, align 8, !tbaa !57
  store ptr null, ptr %32, align 8, !tbaa !57
  %56 = zext nneg i32 %30 to i64
  %57 = getelementptr inbounds nuw i8, ptr %5, i64 8
  %58 = load i64, ptr %57, align 8, !tbaa !37
  %59 = add i64 %58, %56
  store i64 %59, ptr %57, align 8, !tbaa !37
  %60 = tail call i32 @ff_filter_frame(ptr noundef %8, ptr noundef %55) #10
  br label %.critedge82

61:                                               ; preds = %.preheader85
  br i1 %.not95, label %.preheader85, label %.critedge80, !llvm.loop !59

.preheader85:                                     ; preds = %.critedge, %61
  %.not95 = phi i1 [ false, %61 ], [ true, %.critedge ]
  %indvars.iv103 = phi i64 [ 1, %61 ], [ 0, %.critedge ]
  %62 = load ptr, ptr %20, align 8, !tbaa !43
  %63 = getelementptr inbounds nuw ptr, ptr %62, i64 %indvars.iv103
  %64 = load ptr, ptr %63, align 8, !tbaa !40
  %65 = call i32 @ff_inlink_acknowledge_status(ptr noundef %64, ptr noundef nonnull %2, ptr noundef nonnull %3) #10
  %.not75 = icmp eq i32 %65, 0
  br i1 %.not75, label %61, label %66

66:                                               ; preds = %.preheader85
  %67 = load i32, ptr %2, align 4, !tbaa !60
  %68 = load i64, ptr %3, align 8, !tbaa !61
  call void @ff_avfilter_link_set_in_status(ptr noundef %8, i32 noundef %67, i64 noundef %68) #10
  br label %.critedge82

.critedge80:                                      ; preds = %61
  %69 = call i32 @ff_outlink_frame_wanted(ptr noundef %8) #10
  %.not76 = icmp eq i32 %69, 0
  br i1 %.not76, label %.critedge82, label %.preheader84

.preheader84:                                     ; preds = %.critedge80
  %70 = getelementptr inbounds nuw i8, ptr %5, i64 32
  br label %71

71:                                               ; preds = %.preheader84, %84
  %.not96 = phi i1 [ true, %.preheader84 ], [ false, %84 ]
  %indvars.iv106 = phi i64 [ 0, %.preheader84 ], [ 1, %84 ]
  %72 = getelementptr inbounds nuw [2 x ptr], ptr %70, i64 0, i64 %indvars.iv106
  %73 = load ptr, ptr %72, align 8, !tbaa !57
  %.not77 = icmp eq ptr %73, null
  br i1 %.not77, label %74, label %84

74:                                               ; preds = %71
  %75 = load ptr, ptr %20, align 8, !tbaa !43
  %76 = getelementptr inbounds nuw ptr, ptr %75, i64 %indvars.iv106
  %77 = load ptr, ptr %76, align 8, !tbaa !40
  %78 = call i32 @ff_inlink_queued_samples(ptr noundef %77) #10
  %79 = icmp sgt i32 %78, 0
  br i1 %79, label %84, label %80

80:                                               ; preds = %74
  %81 = load ptr, ptr %20, align 8, !tbaa !43
  %82 = getelementptr inbounds nuw ptr, ptr %81, i64 %indvars.iv106
  %83 = load ptr, ptr %82, align 8, !tbaa !40
  call void @ff_inlink_request_frame(ptr noundef %83) #10
  br label %.critedge82

84:                                               ; preds = %71, %74
  br i1 %.not96, label %71, label %.critedge82, !llvm.loop !62

.critedge82:                                      ; preds = %13, %84, %.preheader86, %.critedge80, %80, %66, %41, %53
  %.1 = phi i32 [ 0, %80 ], [ 0, %66 ], [ %60, %53 ], [ %39, %41 ], [ -1497649742, %.critedge80 ], [ 0, %.preheader86 ], [ -1497649742, %84 ], [ 0, %13 ]
  call void @llvm.lifetime.end.p0(i64 8, ptr nonnull %3) #10
  call void @llvm.lifetime.end.p0(i64 4, ptr nonnull %2) #10
  ret i32 %.1
}